target datalayout = "e-m:e-p270:32:32-p271:32:32-p272:64:64-i64:64-i128:128-f80:128-n8:16:32:64-S128"
target triple = "x86_64-pc-linux-gnu"

%struct.DdManager = type { %struct.DdNode, ptr, ptr, ptr, ptr, ptr, ptr, ptr, i32, i32, double, double, double, i32, i32, i32, i32, i32, i32, ptr, ptr, %struct.DdSubtable, i32, i32, i32, i32, i32, i32, i32, double, i32, i32, i32, ptr, i64, double, i32, ptr, ptr, ptr, ptr, ptr, ptr, ptr, i32, ptr, ptr, ptr, ptr, ptr, ptr, i32, i32, i32, double, i32, i32, i32, i32, double, double, i32, i32, i32, i32, i32, i32, i32, i32, i32, ptr, ptr, i32, i32, i32, i32, i32, i32, ptr, ptr, ptr, ptr, ptr, ptr, ptr, ptr, i32, i64, i64, i64, i32, i64, i64, double, double, double, double, double, double, i32, ptr, ptr, i64 }
%struct.DdNode = type { i32, i32, ptr, %union.anon, i64 }
%union.anon = type { %struct.DdChildren }
%struct.DdChildren = type { ptr, ptr }
%struct.DdSubtable = type { ptr, i32, i32, i32, i32, i32, i32, i32, i32, i32, i32, i32 }

; Function Attrs: nounwind uwtable
define internal i32 @ddWindowConv3(ptr noundef %0, i32 noundef %1, i32 noundef %2) #0 {
  %4 = alloca i32, align 4
  %5 = alloca ptr, align 8
  %6 = alloca i32, align 4
  %7 = alloca i32, align 4
  %8 = alloca i32, align 4
  %9 = alloca i32, align 4
  %10 = alloca i32, align 4
  %11 = alloca i32, align 4
  %12 = alloca ptr, align 8
  %13 = alloca i32, align 4
  store ptr %0, ptr %5, align 8, !tbaa !3
  store i32 %1, ptr %6, align 4, !tbaa !8
  store i32 %2, ptr %7, align 4, !tbaa !8
  call void @llvm.lifetime.start.p0(i64 4, ptr %8) #5
  call void @llvm.lifetime.start.p0(i64 4, ptr %9) #5
  call void @llvm.lifetime.start.p0(i64 4, ptr %10) #5
  call void @llvm.lifetime.start.p0(i64 4, ptr %11) #5
  call void @llvm.lifetime.start.p0(i64 8, ptr %12) #5
  %14 = load i32, ptr %7, align 4, !tbaa !8
  %15 = load i32, ptr %6, align 4, !tbaa !8
  %16 = sub nsw i32 %14, %15
  %17 = icmp slt i32 %16, 2
  br i1 %17, label %18, label %23

18:                                               ; preds = %3
  %19 = load ptr, ptr %5, align 8, !tbaa !3
  %20 = load i32, ptr %6, align 4, !tbaa !8
  %21 = load i32, ptr %7, align 4, !tbaa !8
  %22 = call i32 @ddWindowConv2(ptr noundef %19, i32 noundef %20, i32 noundef %21)
  store i32 %22, ptr %4, align 4
  store i32 1, ptr %13, align 4
  br label %180

23:                                               ; preds = %3
  %24 = load i32, ptr %7, align 4, !tbaa !8
  %25 = load i32, ptr %6, align 4, !tbaa !8
  %26 = sub nsw i32 %24, %25
  %27 = sub nsw i32 %26, 1
  store i32 %27, ptr %10, align 4, !tbaa !8
  %28 = load i32, ptr %10, align 4, !tbaa !8
  %29 = sext i32 %28 to i64
  %30 = mul i64 4, %29
  %31 = call noalias ptr @malloc(i64 noundef %30) #6
  store ptr %31, ptr %12, align 8, !tbaa !32
  %32 = load ptr, ptr %12, align 8, !tbaa !32
  %33 = icmp eq ptr %32, null
  br i1 %33, label %34, label %37

34:                                               ; preds = %23
  %35 = load ptr, ptr %5, align 8, !tbaa !3
  %36 = getelementptr inbounds nuw %struct.DdManager, ptr %35, i32 0, i32 86
  store i32 1, ptr %36, align 8, !tbaa !33
  store i32 0, ptr %4, align 4
  store i32 1, ptr %13, align 4
  br label %180

37:                                               ; preds = %23
  store i32 0, ptr %8, align 4, !tbaa !8
  br label %38

38:                                               ; preds = %47, %37
  %39 = load i32, ptr %8, align 4, !tbaa !8
  %40 = load i32, ptr %10, align 4, !tbaa !8
  %41 = icmp slt i32 %39, %40
  br i1 %41, label %42, label %50

42:                                               ; preds = %38
  %43 = load ptr, ptr %12, align 8, !tbaa !32
  %44 = load i32, ptr %8, align 4, !tbaa !8
  %45 = sext i32 %44 to i64
  %46 = getelementptr inbounds i32, ptr %43, i64 %45
  store i32 1, ptr %46, align 4, !tbaa !8
  br label %47

47:                                               ; preds = %42
  %48 = load i32, ptr %8, align 4, !tbaa !8
  %49 = add nsw i32 %48, 1
  store i32 %49, ptr %8, align 4, !tbaa !8
  br label %38, !llvm.loop !37

50:                                               ; preds = %38
  br label %51

51:                                               ; preds = %170, %50
  store i32 0, ptr %11, align 4, !tbaa !8
  store i32 0, ptr %8, align 4, !tbaa !8
  br label %52

52:                                               ; preds = %166, %51
  %53 = load i32, ptr %8, align 4, !tbaa !8
  %54 = load i32, ptr %10, align 4, !tbaa !8
  %55 = icmp slt i32 %53, %54
  br i1 %55, label %56, label %169

56:                                               ; preds = %52
  %57 = load ptr, ptr %12, align 8, !tbaa !32
  %58 = load i32, ptr %8, align 4, !tbaa !8
  %59 = sext i32 %58 to i64
  %60 = getelementptr inbounds i32, ptr %57, i64 %59
  %61 = load i32, ptr %60, align 4, !tbaa !8
  %62 = icmp ne i32 %61, 0
  br i1 %62, label %63, label %165

63:                                               ; preds = %56
  %64 = load ptr, ptr %5, align 8, !tbaa !3
  %65 = load i32, ptr %8, align 4, !tbaa !8
  %66 = load i32, ptr %6, align 4, !tbaa !8
  %67 = add nsw i32 %65, %66
  %68 = call i32 @ddPermuteWindow3(ptr noundef %64, i32 noundef %67)
  store i32 %68, ptr %9, align 4, !tbaa !8
  %69 = load i32, ptr %9, align 4, !tbaa !8
  switch i32 %69, label %153 [
    i32 1, label %160
    i32 2, label %70
    i32 3, label %91
    i32 4, label %91
    i32 5, label %91
    i32 6, label %132
  ]

70:                                               ; preds = %63
  %71 = load i32, ptr %8, align 4, !tbaa !8
  %72 = load i32, ptr %10, align 4, !tbaa !8
  %73 = sub nsw i32 %72, 1
  %74 = icmp slt i32 %71, %73
  br i1 %74, label %75, label %81

75:                                               ; preds = %70
  %76 = load ptr, ptr %12, align 8, !tbaa !32
  %77 = load i32, ptr %8, align 4, !tbaa !8
  %78 = add nsw i32 %77, 1
  %79 = sext i32 %78 to i64
  %80 = getelementptr inbounds i32, ptr %76, i64 %79
  store i32 1, ptr %80, align 4, !tbaa !8
  br label %81

81:                                               ; preds = %75, %70
  %82 = load i32, ptr %8, align 4, !tbaa !8
  %83 = icmp sgt i32 %82, 1
  br i1 %83, label %84, label %90

84:                                               ; preds = %81
  %85 = load ptr, ptr %12, align 8, !tbaa !32
  %86 = load i32, ptr %8, align 4, !tbaa !8
  %87 = sub nsw i32 %86, 2
  %88 = sext i32 %87 to i64
  %89 = getelementptr inbounds i32, ptr %85, i64 %88
  store i32 1, ptr %89, align 4, !tbaa !8
  br label %90

90:                                               ; preds = %84, %81
  store i32 1, ptr %11, align 4, !tbaa !8
  br label %160

91:                                               ; preds = %63, %63, %63
  %92 = load i32, ptr %8, align 4, !tbaa !8
  %93 = load i32, ptr %10, align 4, !tbaa !8
  %94 = sub nsw i32 %93, 2
  %95 = icmp slt i32 %92, %94
  br i1 %95, label %96, label %102

96:                                               ; preds = %91
  %97 = load ptr, ptr %12, align 8, !tbaa !32
  %98 = load i32, ptr %8, align 4, !tbaa !8
  %99 = add nsw i32 %98, 2
  %100 = sext i32 %99 to i64
  %101 = getelementptr inbounds i32, ptr %97, i64 %100
  store i32 1, ptr %101, align 4, !tbaa !8
  br label %102

102:                                              ; preds = %96, %91
  %103 = load i32, ptr %8, align 4, !tbaa !8
  %104 = load i32, ptr %10, align 4, !tbaa !8
  %105 = sub nsw i32 %104, 1
  %106 = icmp slt i32 %103, %105
  br i1 %106, label %107, label %113

107:                                              ; preds = %102
  %108 = load ptr, ptr %12, align 8, !tbaa !32
  %109 = load i32, ptr %8, align 4, !tbaa !8
  %110 = add nsw i32 %109, 1
  %111 = sext i32 %110 to i64
  %112 = getelementptr inbounds i32, ptr %108, i64 %111
  store i32 1, ptr %112, align 4, !tbaa !8
  br label %113

113:                                              ; preds = %107, %102
  %114 = load i32, ptr %8, align 4, !tbaa !8
  %115 = icmp sgt i32 %114, 0
  br i1 %115, label %116, label %122

116:                                              ; preds = %113
  %117 = load ptr, ptr %12, align 8, !tbaa !32
  %118 = load i32, ptr %8, align 4, !tbaa !8
  %119 = sub nsw i32 %118, 1
  %120 = sext i32 %119 to i64
  %121 = getelementptr inbounds i32, ptr %117, i64 %120
  store i32 1, ptr %121, align 4, !tbaa !8
  br label %122

122:                                              ; preds = %116, %113
  %123 = load i32, ptr %8, align 4, !tbaa !8
  %124 = icmp sgt i32 %123, 1
  br i1 %124, label %125, label %131

125:                                              ; preds = %122
  %126 = load ptr, ptr %12, align 8, !tbaa !32
  %127 = load i32, ptr %8, align 4, !tbaa !8
  %128 = sub nsw i32 %127, 2
  %129 = sext i32 %128 to i64
  %130 = getelementptr inbounds i32, ptr %126, i64 %129
  store i32 1, ptr %130, align 4, !tbaa !8
  br label %131

131:                                              ; preds = %125, %122
  store i32 1, ptr %11, align 4, !tbaa !8
  br label %160

132:                                              ; preds = %63
  %133 = load i32, ptr %8, align 4, !tbaa !8
  %134 = load i32, ptr %10, align 4, !tbaa !8
  %135 = sub nsw i32 %134, 2
  %136 = icmp slt i32 %133, %135
  br i1 %136, label %137, label %143

137:                                              ; preds = %132
  %138 = load ptr, ptr %12, align 8, !tbaa !32
  %139 = load i32, ptr %8, align 4, !tbaa !8
  %140 = add nsw i32 %139, 2
  %141 = sext i32 %140 to i64
  %142 = getelementptr inbounds i32, ptr %138, i64 %141
  store i32 1, ptr %142, align 4, !tbaa !8
  br label %143

143:                                              ; preds = %137, %132
  %144 = load i32, ptr %8, align 4, !tbaa !8
  %145 = icmp sgt i32 %144, 0
  br i1 %145, label %146, label %152

146:                                              ; preds = %143
  %147 = load ptr, ptr %12, align 8, !tbaa !32
  %148 = load i32, ptr %8, align 4, !tbaa !8
  %149 = sub nsw i32 %148, 1
  %150 = sext i32 %149 to i64
  %151 = getelementptr inbounds i32, ptr %147, i64 %150
  store i32 1, ptr %151, align 4, !tbaa !8
  br label %152

152:                                              ; preds = %146, %143
  store i32 1, ptr %11, align 4, !tbaa !8
  br label %160

153:                                              ; preds = %63
  %154 = load ptr, ptr %12, align 8, !tbaa !32
  %155 = icmp ne ptr %154, null
  br i1 %155, label %156, label %158

156:                                              ; preds = %153
  %157 = load ptr, ptr %12, align 8, !tbaa !32
  call void @free(ptr noundef %157) #5
  store ptr null, ptr %12, align 8, !tbaa !32
  br label %159

158:                                              ; preds = %153
  br label %159

159:                                              ; preds = %158, %156
  store i32 0, ptr %4, align 4
  store i32 1, ptr %13, align 4
  br label %180

160:                                              ; preds = %152, %131, %90, %63
  %161 = load ptr, ptr %12, align 8, !tbaa !32
  %162 = load i32, ptr %8, align 4, !tbaa !8
  %163 = sext i32 %162 to i64
  %164 = getelementptr inbounds i32, ptr %161, i64 %163
  store i32 0, ptr %164, align 4, !tbaa !8
  br label %165

165:                                              ; preds = %160, %56
  br label %166

166:                                              ; preds = %165
  %167 = load i32, ptr %8, align 4, !tbaa !8
  %168 = add nsw i32 %167, 1
  store i32 %168, ptr %8, align 4, !tbaa !8
  br label %52, !llvm.loop !38

169:                                              ; preds = %52
  br label %170

170:                                              ; preds = %169
  %171 = load i32, ptr %11, align 4, !tbaa !8
  %172 = icmp ne i32 %171, 0
  br i1 %172, label %51, label %173, !llvm.loop !39

173:                                              ; preds = %170
  %174 = load ptr, ptr %12, align 8, !tbaa !32
  %175 = icmp ne ptr %174, null
  br i1 %175, label %176, label %178

176:                                              ; preds = %173
  %177 = load ptr, ptr %12, align 8, !tbaa !32
  call void @free(ptr noundef %177) #5
  store ptr null, ptr %12, align 8, !tbaa !32
  br label %179

178:                                              ; preds = %173
  br label %179

179:                                              ; preds = %178, %176
  store i32 1, ptr %4, align 4
  store i32 1, ptr %13, align 4
  br label %180

180:                                              ; preds = %179, %159, %34, %18
  call void @llvm.lifetime.end.p0(i64 8, ptr %12) #5
  call void @llvm.lifetime.end.p0(i64 4, ptr %11) #5
  call void @llvm.lifetime.end.p0(i64 4, ptr %10) #5
  call void @llvm.lifetime.end.p0(i64 4, ptr %9) #5
  call void @llvm.lifetime.end.p0(i64 4, ptr %8) #5
  %181 = load i32, ptr %4, align 4
  ret i32 %181
}