; Function Attrs: nounwind uwtable
define internal fastcc range(i32 0, 2) i32 @ddWindowConv3(ptr noundef %0, i32 noundef %1, i32 noundef %2) unnamed_addr #0 {
  %4 = sub nsw i32 %2, %1
  %5 = icmp slt i32 %4, 2
  br i1 %5, label %6, label %8

6:                                                ; preds = %3
  %7 = tail call fastcc i32 @ddWindowConv2(ptr noundef %0, i32 noundef %1, i32 noundef %2)
  br label %51

8:                                                ; preds = %3
  %9 = add nsw i32 %4, -1
  %10 = zext nneg i32 %9 to i64
  %11 = shl nuw nsw i64 %10, 2
  %12 = tail call noalias ptr @malloc(i64 noundef %11) #6
  %13 = icmp eq ptr %12, null
  br i1 %13, label %14, label %.lr.ph

14:                                               ; preds = %8
  %15 = getelementptr inbounds nuw i8, ptr %0, i64 624
  store i32 1, ptr %15, align 8, !tbaa !29
  br label %51

.lr.ph75.us.preheader:                            ; preds = %.lr.ph
  %16 = add nsw i32 %4, -2
  %17 = add nsw i32 %4, -3
  %18 = sext i32 %17 to i64
  %19 = sext i32 %16 to i64
  %smax = tail call i32 @llvm.smax.i32(i32 %9, i32 1)
  %wide.trip.count82 = zext nneg i32 %smax to i64
  br label %.lr.ph75.us

.lr.ph75.us:                                      ; preds = %.lr.ph75.us.backedge, %.lr.ph75.us.preheader
  %indvars.iv79 = phi i64 [ 0, %.lr.ph75.us.preheader ], [ %indvars.iv79.be, %.lr.ph75.us.backedge ]
  %.074.us = phi i32 [ 0, %.lr.ph75.us.preheader ], [ %.074.us.be, %.lr.ph75.us.backedge ]
  %20 = getelementptr inbounds nuw i32, ptr %12, i64 %indvars.iv79
  %21 = load i32, ptr %20, align 4, !tbaa !30
  %.not65.us = icmp eq i32 %21, 0
  br i1 %.not65.us, label %49, label %22

22:                                               ; preds = %.lr.ph75.us
  %23 = trunc i64 %indvars.iv79 to i32
  %24 = add i32 %1, %23
  %25 = tail call fastcc i32 @ddPermuteWindow3(ptr noundef %0, i32 noundef %24)
  switch i32 %25, label %.split77.us [
    i32 1, label %.thread.us
    i32 2, label %42
    i32 3, label %31
    i32 4, label %31
    i32 5, label %31
    i32 6, label %26
  ]

26:                                               ; preds = %22
  %27 = icmp slt i64 %indvars.iv79, %18
  br i1 %27, label %28, label %30

28:                                               ; preds = %26
  %29 = getelementptr inbounds nuw i8, ptr %20, i64 8
  store i32 1, ptr %29, align 4, !tbaa !30
  br label %30

30:                                               ; preds = %28, %26
  %.not66.us = icmp eq i64 %indvars.iv79, 0
  br i1 %.not66.us, label %.thread.us, label %.thread.us.sink.split

31:                                               ; preds = %22, %22, %22
  %32 = icmp slt i64 %indvars.iv79, %18
  br i1 %32, label %33, label %35

33:                                               ; preds = %31
  %34 = getelementptr inbounds nuw i8, ptr %20, i64 8
  store i32 1, ptr %34, align 4, !tbaa !30
  br label %35

35:                                               ; preds = %33, %31
  %36 = icmp slt i64 %indvars.iv79, %19
  br i1 %36, label %37, label %39

37:                                               ; preds = %35
  %38 = getelementptr inbounds nuw i8, ptr %20, i64 4
  store i32 1, ptr %38, align 4, !tbaa !30
  br label %39

39:                                               ; preds = %37, %35
  %.not67.us = icmp eq i64 %indvars.iv79, 0
  br i1 %.not67.us, label %.thread.us, label %40

40:                                               ; preds = %39
  %41 = getelementptr i8, ptr %20, i64 -4
  store i32 1, ptr %41, align 4, !tbaa !30
  %.not68.us = icmp eq i64 %indvars.iv79, 1
  br i1 %.not68.us, label %.thread.us, label %.thread.us.sink.split

42:                                               ; preds = %22
  %43 = icmp slt i64 %indvars.iv79, %19
  br i1 %43, label %44, label %46

44:                                               ; preds = %42
  %45 = getelementptr inbounds nuw i8, ptr %20, i64 4
  store i32 1, ptr %45, align 4, !tbaa !30
  br label %46

46:                                               ; preds = %44, %42
  %47 = icmp samesign ugt i64 %indvars.iv79, 1
  br i1 %47, label %.thread.us.sink.split, label %.thread.us

.thread.us.sink.split:                            ; preds = %46, %40, %30
  %.sink84 = phi i64 [ -4, %30 ], [ -8, %40 ], [ -8, %46 ]
  %48 = getelementptr i8, ptr %20, i64 %.sink84
  store i32 1, ptr %48, align 4, !tbaa !30
  br label %.thread.us

.thread.us:                                       ; preds = %.thread.us.sink.split, %46, %40, %39, %30, %22
  %.1.us = phi i32 [ %.074.us, %22 ], [ 1, %46 ], [ 1, %40 ], [ 1, %30 ], [ 1, %39 ], [ 1, %.thread.us.sink.split ]
  store i32 0, ptr %20, align 4, !tbaa !30
  br label %49

49:                                               ; preds = %.thread.us, %.lr.ph75.us
  %.2.us = phi i32 [ %.1.us, %.thread.us ], [ %.074.us, %.lr.ph75.us ]
  %indvars.iv.next80 = add nuw nsw i64 %indvars.iv79, 1
  %exitcond83.not = icmp eq i64 %indvars.iv.next80, %wide.trip.count82
  br i1 %exitcond83.not, label %._crit_edge.us, label %.lr.ph75.us.backedge

.lr.ph75.us.backedge:                             ; preds = %49, %._crit_edge.us
  %indvars.iv79.be = phi i64 [ %indvars.iv.next80, %49 ], [ 0, %._crit_edge.us ]
  %.074.us.be = phi i32 [ %.2.us, %49 ], [ 0, %._crit_edge.us ]
  br label %.lr.ph75.us, !llvm.loop !35

._crit_edge.us:                                   ; preds = %49
  %.not.us = icmp eq i32 %.2.us, 0
  br i1 %.not.us, label %.split.us, label %.lr.ph75.us.backedge

.lr.ph:                                           ; preds = %8, %.lr.ph
  %indvars.iv = phi i64 [ %indvars.iv.next, %.lr.ph ], [ 0, %8 ]
  %50 = getelementptr inbounds nuw i32, ptr %12, i64 %indvars.iv
  store i32 1, ptr %50, align 4, !tbaa !30
  %indvars.iv.next = add nuw nsw i64 %indvars.iv, 1
  %exitcond.not = icmp eq i64 %indvars.iv.next, %10
  br i1 %exitcond.not, label %.lr.ph75.us.preheader, label %.lr.ph, !llvm.loop !36

.split77.us:                                      ; preds = %22
  tail call void @free(ptr noundef nonnull %12) #5
  br label %51

.split.us:                                        ; preds = %._crit_edge.us
  tail call void @free(ptr noundef nonnull %12) #5
  br label %51

51:                                               ; preds = %.split.us, %.split77.us, %14, %6
  %.059 = phi i32 [ %7, %6 ], [ 0, %14 ], [ 0, %.split77.us ], [ 1, %.split.us ]
  ret i32 %.059
}